(dp1
S'save_interval'
p2
I360
sS'pretty_print'
p3
I00
sS'idle_timeout'
p4
I0
sS'accounts'
p5
I00
sS'word_wrap_cols'
p6
I72
sS'recaptcha_public_key'
p7
S''
sS'recaptcha_private_key'
p8
S''
sS'challenge_type'
p9
S'simple'
p10
sS'challenge'
p11
I00
sS'system'
p12
S'sage'
p13
sS'server_pool'
p14
NsS'ulimit'
p15
S''
sS'doc_pool_size'
p16
I128
sS'max_history_length'
p17
I250
sS'email'
p18
I00
sS'idle_check_interval'
p19
I360
s.