(dp1
S'pretty_print'
p2
I00
sS'save_interval'
p3
I360
sS'idle_timeout'
p4
I0
sS'accounts'
p5
I00
sS'recaptcha_public_key'
p6
S''
sS'doc_pool_size'
p7
I128
sS'recaptcha_private_key'
p8
S''
sS'challenge_type'
p9
S'simple'
p10
sS'challenge'
p11
I00
sS'system'
p12
S'sage'
p13
sS'email'
p14
I00
sS'ulimit'
p15
S''
sS'max_history_length'
p16
I250
sS'word_wrap_cols'
p17
I72
sS'server_pool'
p18
NsS'idle_check_interval'
p19
I360
s.