(dp1
S'openid'
p2
I00
sS'pretty_print'
p3
I00
sS'save_interval'
p4
I360
sS'require_login'
p5
I01
sS'default_language'
p6
S'en_US'
p7
sS'idle_timeout'
p8
I0
sS'model_version'
p9
I1
sS'accounts'
p10
I01
sS'word_wrap_cols'
p11
I72
sS'recaptcha_public_key'
p12
S''
sS'recaptcha_private_key'
p13
S''
sS'challenge_type'
p14
S'simple'
p15
sS'challenge'
p16
I00
sS'system'
p17
S'sage'
p18
sS'email'
p19
I00
sS'ulimit'
p20
S''
sS'doc_pool_size'
p21
I128
sS'auth_ldap'
p22
I00
sS'max_history_length'
p23
I250
sS'server_pool'
p24
NsS'idle_check_interval'
p25
I360
s.