(dp1
S'openid'
p2
I00
sS'pretty_print'
p3
I00
sS'require_login'
p4
I01
sS'save_interval'
p5
I360
sS'idle_timeout'
p6
I0
sS'model_version'
p7
I1
sS'accounts'
p8
I01
sS'recaptcha_public_key'
p9
S''
sS'recaptcha_private_key'
p10
S''
sS'max_history_length'
p11
I250
sS'default_language'
p12
S'en_US'
p13
sS'challenge_type'
p14
S'simple'
p15
sS'challenge'
p16
I00
sS'system'
p17
S'sage'
p18
sS'email'
p19
I00
sS'ulimit'
p20
S''
sS'doc_pool_size'
p21
I128
sS'word_wrap_cols'
p22
I72
sS'server_pool'
p23
NsS'idle_check_interval'
p24
I360
s.