(lp1
(lp2
S'_sage_'
p3
a(dp4
S'username'
p5
g3
sS'account_type'
p6
S'user'
p7
sS'temporary_password'
p8
S''
sS'is_suspended'
p9
I00
sS'email_confirmed'
p10
I00
sS'conf'
p11
(dp12
S'next_worksheet_id_number'
p13
I14
sS'default_system'
p14
S'sage'
p15
ssS'password'
p16
S'aaQSqAReePlq6'
p17
sS'email'
p18
S''
saa(lp19
S'abehnen'
p20
a(dp21
S'username'
p22
g20
sS'account_type'
p23
S'user'
p24
sS'temporary_password'
p25
S''
sS'is_suspended'
p26
I00
sS'email_confirmed'
p27
I00
sS'conf'
p28
(dp29
sS'password'
p30
S'aaRaMgYtVMJVY'
p31
sS'email'
p32
S''
saa(lp33
S'admin'
p34
a(dp35
S'username'
p36
g34
sS'account_type'
p37
g34
sS'temporary_password'
p38
S''
sS'is_suspended'
p39
I00
sS'email_confirmed'
p40
I00
sS'conf'
p41
(dp42
S'next_worksheet_id_number'
p43
I47
sS'autosave_interval'
p44
I3600
sS'default_system'
p45
S'sage'
p46
ssS'password'
p47
S'aaCbkVdeLsof2'
p48
sS'email'
p49
S''
saa(lp50
S'cruegge'
p51
a(dp52
S'username'
p53
g51
sS'account_type'
p54
S'user'
p55
sS'temporary_password'
p56
S''
sS'is_suspended'
p57
I00
sS'email_confirmed'
p58
I00
sS'conf'
p59
(dp60
S'next_worksheet_id_number'
p61
I11
sg44
I60
sS'max_history_length'
p62
I1000
sS'default_system'
p63
S'sage'
p64
ssS'password'
p65
S'aazpOAV25Rc3U'
p66
sS'email'
p67
S''
saa(lp68
S'guest'
p69
a(dp70
S'username'
p71
g69
sS'account_type'
p72
g69
sS'temporary_password'
p73
S''
sS'is_suspended'
p74
I00
sS'email_confirmed'
p75
I00
sS'conf'
p76
(dp77
sS'password'
p78
S'aaQSqAReePlq6'
p79
sS'email'
p80
S''
saa(lp81
S'jschulz'
p82
a(dp83
S'username'
p84
g82
sS'account_type'
p85
g55
sS'temporary_password'
p86
S''
sS'is_suspended'
p87
I00
sS'email_confirmed'
p88
I00
sS'conf'
p89
(dp90
S'next_worksheet_id_number'
p91
I62
sS'default_system'
p92
S'sage'
p93
sS'max_history_length'
p94
I1000
sS'autosave_interval'
p95
I3600
ssS'password'
p96
S'aahk9OdqvRuSo'
p97
sS'email'
p98
S''
saa(lp99
S'pub'
p100
a(dp101
S'username'
p102
g100
sS'account_type'
p103
S'user'
p104
sS'temporary_password'
p105
S''
sS'is_suspended'
p106
I00
sS'email_confirmed'
p107
I00
sS'conf'
p108
(dp109
S'next_worksheet_id_number'
p110
I4
sS'default_system'
p111
S'sage'
p112
ssS'password'
p113
S'aaQSqAReePlq6'
p114
sS'email'
p115
S''
saa(lp116
S'tgroth'
p117
a(dp118
S'username'
p119
g117
sS'account_type'
p120
g24
sS'temporary_password'
p121
S''
sS'is_suspended'
p122
I00
sS'email_confirmed'
p123
I00
sS'conf'
p124
(dp125
S'next_worksheet_id_number'
p126
I47
sS'default_system'
p127
S'sage'
p128
sS'max_history_length'
p129
I1000
ssS'password'
p130
S'aa/WyxjMBnLYU'
p131
sS'email'
p132
S''
saa.