(lp1
(lp2
S'_sage_'
p3
a(dp4
S'username'
p5
g3
sS'account_type'
p6
S'user'
p7
sS'temporary_password'
p8
S''
sS'is_suspended'
p9
I00
sS'viewable_worksheets'
p10
c__builtin__
set
p11
((ltRp12
sS'email_confirmed'
p13
I00
sS'conf'
p14
(dp15
S'next_worksheet_id_number'
p16
I14
sS'default_system'
p17
S'sage'
p18
ssS'password'
p19
S'aaQSqAReePlq6'
p20
sS'email'
p21
S''
saa(lp22
S'abehnen'
p23
a(dp24
S'username'
p25
g23
sS'account_type'
p26
S'user'
p27
sS'temporary_password'
p28
S''
sS'is_suspended'
p29
I00
sS'viewable_worksheets'
p30
g11
((lp31
(S'jschulz'
p32
I23
tp33
a(g32
I44
tp34
a(S'cruegge'
p35
I6
tp36
a(g32
I9
tp37
a(g32
I28
tp38
a(g35
I2
tp39
a(g32
I14
tp40
a(g32
I24
tp41
a(g32
I45
tp42
a(g32
I1
tp43
a(g32
I32
tp44
a(g32
I10
tp45
a(g32
I29
tp46
a(g35
I5
tp47
a(g32
I16
tp48
a(g32
I15
tp49
a(g32
I25
tp50
a(g35
I1
tp51
a(g32
I2
tp52
a(g32
I33
tp53
a(g32
I11
tp54
a(g32
I21
tp55
a(g32
I42
tp56
a(g32
I30
tp57
a(g35
I4
tp58
a(S'tgroth'
p59
I46
tp60
a(g32
I7
tp61
a(g32
I38
tp62
a(g32
I26
tp63
a(g35
I0
tp64
a(g32
I3
tp65
a(g32
I12
tp66
a(g32
I22
tp67
a(g32
I43
tp68
a(g35
I7
tp69
a(g59
I47
tp70
a(g32
I8
tp71
a(g32
I39
tp72
a(g35
I8
tp73
a(g32
I27
tp74
a(g35
I3
tp75
a(g32
I4
tp76
atRp77
sS'email_confirmed'
p78
I00
sS'conf'
p79
(dp80
sS'password'
p81
S'aaRaMgYtVMJVY'
p82
sS'email'
p83
S''
saa(lp84
S'admin'
p85
a(dp86
S'username'
p87
g85
sS'account_type'
p88
g85
sS'temporary_password'
p89
S''
sS'is_suspended'
p90
I00
sS'viewable_worksheets'
p91
g11
((ltRp92
sS'email_confirmed'
p93
I00
sS'conf'
p94
(dp95
S'next_worksheet_id_number'
p96
I47
sS'autosave_interval'
p97
I3600
sS'default_system'
p98
S'sage'
p99
ssS'password'
p100
S'aaCbkVdeLsof2'
p101
sS'email'
p102
S''
saa(lp103
g35
a(dp104
S'username'
p105
g35
sS'account_type'
p106
S'user'
p107
sS'temporary_password'
p108
S''
sS'is_suspended'
p109
I00
sS'viewable_worksheets'
p110
g11
((lp111
(g32
I23
tp112
a(g32
I44
tp113
a(g32
I9
tp114
a(g32
I28
tp115
a(g32
I14
tp116
a(g32
I24
tp117
a(g32
I45
tp118
a(g32
I1
tp119
a(g32
I32
tp120
a(g32
I10
tp121
a(g32
I29
tp122
a(g32
I16
tp123
a(g32
I15
tp124
a(g32
I25
tp125
a(g32
I2
tp126
a(g32
I33
tp127
a(g32
I11
tp128
a(g32
I21
tp129
a(g32
I42
tp130
a(g32
I30
tp131
a(g59
I46
tp132
a(g32
I7
tp133
a(g32
I38
tp134
a(g32
I26
tp135
a(g32
I3
tp136
a(g32
I12
tp137
a(g32
I22
tp138
a(g32
I43
tp139
a(g59
I47
tp140
a(g32
I8
tp141
a(g32
I39
tp142
a(g32
I27
tp143
a(g32
I4
tp144
atRp145
sS'email_confirmed'
p146
I00
sS'conf'
p147
(dp148
S'next_worksheet_id_number'
p149
I11
sg97
I60
sS'max_history_length'
p150
I1000
sS'default_system'
p151
S'sage'
p152
ssS'password'
p153
S'aazpOAV25Rc3U'
p154
sS'email'
p155
S''
saa(lp156
S'guest'
p157
a(dp158
S'username'
p159
g157
sS'account_type'
p160
g157
sS'temporary_password'
p161
S''
sS'is_suspended'
p162
I00
sS'viewable_worksheets'
p163
g11
((ltRp164
sS'email_confirmed'
p165
I00
sS'conf'
p166
(dp167
sS'password'
p168
S'aaQSqAReePlq6'
p169
sS'email'
p170
S''
saa(lp171
g32
a(dp172
S'username'
p173
g32
sS'account_type'
p174
g107
sS'temporary_password'
p175
S''
sS'is_suspended'
p176
I00
sS'viewable_worksheets'
p177
g11
((lp178
(g35
I0
tp179
a(g35
I1
tp180
a(g35
I6
tp181
a(g35
I7
tp182
a(g59
I47
tp183
a(g35
I4
tp184
a(g59
I46
tp185
a(g35
I5
tp186
a(g35
I8
tp187
a(g35
I2
tp188
a(g35
I3
tp189
atRp190
sS'email_confirmed'
p191
I00
sS'conf'
p192
(dp193
S'next_worksheet_id_number'
p194
I63
sS'default_system'
p195
S'sage'
p196
sS'max_history_length'
p197
I1000
sS'autosave_interval'
p198
I3600
ssS'password'
p199
S'sha256$3ef48b743e3264d7c1a1ba21335a96b4f2442aa21497f61e8a2dd7af4e7e9489$5542d6e717e4ebff58a9747bd3b5c368271f747353ebf6d3924548b8f56710ae'
p200
sS'email'
p201
S''
saa(lp202
S'pub'
p203
a(dp204
S'username'
p205
g203
sS'account_type'
p206
S'user'
p207
sS'temporary_password'
p208
S''
sS'is_suspended'
p209
I00
sS'viewable_worksheets'
p210
g11
((ltRp211
sS'email_confirmed'
p212
I00
sS'conf'
p213
(dp214
S'next_worksheet_id_number'
p215
I7
sS'default_system'
p216
S'sage'
p217
ssS'password'
p218
S'aaQSqAReePlq6'
p219
sS'email'
p220
S''
saa(lp221
g59
a(dp222
S'username'
p223
g59
sS'account_type'
p224
g27
sS'temporary_password'
p225
S''
sS'is_suspended'
p226
I00
sS'viewable_worksheets'
p227
g11
((lp228
(g32
I23
tp229
a(g32
I44
tp230
a(g35
I6
tp231
a(g32
I9
tp232
a(g32
I28
tp233
a(g35
I2
tp234
a(g32
I14
tp235
a(g32
I24
tp236
a(g32
I45
tp237
a(g32
I1
tp238
a(g32
I32
tp239
a(g32
I10
tp240
a(g32
I29
tp241
a(g35
I5
tp242
a(g32
I16
tp243
a(g32
I15
tp244
a(g32
I25
tp245
a(g35
I1
tp246
a(g32
I2
tp247
a(g32
I33
tp248
a(g32
I11
tp249
a(g32
I21
tp250
a(g32
I42
tp251
a(g32
I30
tp252
a(g35
I4
tp253
a(g32
I7
tp254
a(g32
I38
tp255
a(g32
I26
tp256
a(g35
I0
tp257
a(g32
I3
tp258
a(g32
I12
tp259
a(g32
I22
tp260
a(g32
I43
tp261
a(g35
I7
tp262
a(g32
I8
tp263
a(g32
I39
tp264
a(g35
I8
tp265
a(g32
I27
tp266
a(g35
I3
tp267
a(g32
I4
tp268
atRp269
sS'email_confirmed'
p270
I00
sS'conf'
p271
(dp272
S'next_worksheet_id_number'
p273
I48
sS'default_system'
p274
S'sage'
p275
sS'max_history_length'
p276
I1000
ssS'password'
p277
S'aa/WyxjMBnLYU'
p278
sS'email'
p279
S''
saa.