(lp1
(lp2
S'_sage_'
p3
a(dp4
S'username'
p5
g3
sS'account_type'
p6
S'user'
p7
sS'temporary_password'
p8
S''
sS'is_suspended'
p9
I00
sS'email_confirmed'
p10
I00
sS'conf'
p11
(dp12
S'next_worksheet_id_number'
p13
I14
sS'default_system'
p14
S'sage'
p15
ssS'password'
p16
S'aaQSqAReePlq6'
p17
sS'email'
p18
S''
saa(lp19
S'admin'
p20
a(dp21
S'username'
p22
g20
sS'account_type'
p23
g20
sS'temporary_password'
p24
S''
sS'is_suspended'
p25
I00
sS'email_confirmed'
p26
I00
sS'conf'
p27
(dp28
S'autosave_interval'
p29
I3600
ssS'password'
p30
S'aaMkJQgOzECfc'
p31
sS'email'
p32
S''
saa(lp33
S'cruegge'
p34
a(dp35
S'username'
p36
g34
sS'account_type'
p37
S'user'
p38
sS'temporary_password'
p39
S''
sS'is_suspended'
p40
I00
sS'email_confirmed'
p41
I00
sS'conf'
p42
(dp43
S'next_worksheet_id_number'
p44
I11
sg29
I60
sS'max_history_length'
p45
I1000
sS'default_system'
p46
S'sage'
p47
ssS'password'
p48
S'aazpOAV25Rc3U'
p49
sS'email'
p50
S''
saa(lp51
S'guest'
p52
a(dp53
S'username'
p54
g52
sS'account_type'
p55
g52
sS'temporary_password'
p56
S''
sS'is_suspended'
p57
I00
sS'email_confirmed'
p58
I00
sS'conf'
p59
(dp60
sS'password'
p61
S'aaQSqAReePlq6'
p62
sS'email'
p63
S''
saa(lp64
S'jschulz'
p65
a(dp66
S'username'
p67
g65
sS'account_type'
p68
g38
sS'temporary_password'
p69
S''
sS'is_suspended'
p70
I00
sS'email_confirmed'
p71
I00
sS'conf'
p72
(dp73
S'next_worksheet_id_number'
p74
I47
sS'default_system'
p75
S'sage'
p76
sS'max_history_length'
p77
I1000
sS'autosave_interval'
p78
I3600
ssS'password'
p79
S'aahk9OdqvRuSo'
p80
sS'email'
p81
S''
saa(lp82
S'pub'
p83
a(dp84
S'username'
p85
g83
sS'account_type'
p86
S'user'
p87
sS'temporary_password'
p88
S''
sS'is_suspended'
p89
I00
sS'email_confirmed'
p90
I00
sS'conf'
p91
(dp92
S'next_worksheet_id_number'
p93
I4
sS'default_system'
p94
S'sage'
p95
ssS'password'
p96
S'aaQSqAReePlq6'
p97
sS'email'
p98
S''
saa.