(lp1
(lp2
S'admin'
p3
a(dp4
S'username'
p5
g3
sS'account_type'
p6
g3
sS'temporary_password'
p7
S''
sS'is_suspended'
p8
I00
sS'email_confirmed'
p9
I00
sS'conf'
p10
(dp11
S'autosave_interval'
p12
I3600
ssS'password'
p13
S'aaMkJQgOzECfc'
p14
sS'email'
p15
S''
saa(lp16
S'cruegge'
p17
a(dp18
S'username'
p19
g17
sS'account_type'
p20
S'user'
p21
sS'temporary_password'
p22
S''
sS'is_suspended'
p23
I00
sS'email_confirmed'
p24
I00
sS'conf'
p25
(dp26
S'next_worksheet_id_number'
p27
I9
sg12
I60
sS'default_system'
p28
S'sage'
p29
ssS'password'
p30
S'aazpOAV25Rc3U'
p31
sS'email'
p32
S''
saa(lp33
S'guest'
p34
a(dp35
S'username'
p36
g34
sS'account_type'
p37
g34
sS'temporary_password'
p38
S''
sS'is_suspended'
p39
I00
sS'email_confirmed'
p40
I00
sS'conf'
p41
(dp42
sS'password'
p43
S'aaQSqAReePlq6'
p44
sS'email'
p45
S''
saa(lp46
S'jschulz'
p47
a(dp48
S'username'
p49
g47
sS'account_type'
p50
g21
sS'temporary_password'
p51
S''
sS'is_suspended'
p52
I00
sS'email_confirmed'
p53
I00
sS'conf'
p54
(dp55
S'max_history_length'
p56
I1000
ssS'password'
p57
S'aahk9OdqvRuSo'
p58
sS'email'
p59
S''
saa(lp60
S'pub'
p61
a(dp62
S'username'
p63
g61
sS'account_type'
p64
S'user'
p65
sS'temporary_password'
p66
S''
sS'is_suspended'
p67
I00
sS'email_confirmed'
p68
I00
sS'conf'
p69
(dp70
sS'password'
p71
S'aaQSqAReePlq6'
p72
sS'email'
p73
S''
saa.