(lp1
(lp2
S'admin'
p3
a(dp4
S'username'
p5
g3
sS'account_type'
p6
g3
sS'temporary_password'
p7
S''
sS'is_suspended'
p8
I00
sS'email_confirmed'
p9
I00
sS'conf'
p10
(dp11
S'autosave_interval'
p12
I3600
ssS'password'
p13
S'aaMkJQgOzECfc'
p14
sS'email'
p15
S''
saa(lp16
S'cruegge'
p17
a(dp18
S'username'
p19
g17
sS'account_type'
p20
S'user'
p21
sS'temporary_password'
p22
S''
sS'is_suspended'
p23
I00
sS'email_confirmed'
p24
I00
sS'conf'
p25
(dp26
S'next_worksheet_id_number'
p27
I10
sg12
I60
sS'max_history_length'
p28
I1000
sS'default_system'
p29
S'sage'
p30
ssS'password'
p31
S'aazpOAV25Rc3U'
p32
sS'email'
p33
S''
saa(lp34
S'guest'
p35
a(dp36
S'username'
p37
g35
sS'account_type'
p38
g35
sS'temporary_password'
p39
S''
sS'is_suspended'
p40
I00
sS'email_confirmed'
p41
I00
sS'conf'
p42
(dp43
sS'password'
p44
S'aaQSqAReePlq6'
p45
sS'email'
p46
S''
saa(lp47
S'jschulz'
p48
a(dp49
S'username'
p50
g48
sS'account_type'
p51
g21
sS'temporary_password'
p52
S''
sS'is_suspended'
p53
I00
sS'email_confirmed'
p54
I00
sS'conf'
p55
(dp56
S'next_worksheet_id_number'
p57
I42
sS'default_system'
p58
S'sage'
p59
sS'max_history_length'
p60
I1000
ssS'password'
p61
S'aahk9OdqvRuSo'
p62
sS'email'
p63
S''
saa.