(dp1
S'tags'
p2
(dp3
S'jschulz'
p4
(lp5
I1
assS'id_number'
p6
I42
sS'pretty_print'
p7
I00
sS'system'
p8
S'sage'
p9
sS'published_id_number'
p10
NsS'owner'
p11
S'jschulz'
p12
sS'viewers'
p13
(lp14
sS'ratings'
p15
(lp16
sS'collaborators'
p17
(lp18
S'cruegge'
p19
asS'name'
p20
S'09_programmieren'
p21
sS'auto_publish'
p22
I00
sS'last_change'
p23
(S'jschulz'
p24
F1267094099.9215021
tp25
sS'worksheet_that_was_published'
p26
(g4
I42
tp27
s.