(dp1
S'tags'
p2
(dp3
S'admin'
p4
(lp5
I1
asS'guest'
p6
(lp7
I1
asS'abehnen'
p8
(lp9
I1
asS'jschulz'
p10
(lp11
I1
asS'cruegge'
p12
(lp13
I1
asS'tgroth'
p14
(lp15
I1
assS'id_number'
p16
I0
sS'pretty_print'
p17
I01
sS'system'
p18
S'sage'
p19
sS'published_id_number'
p20
NsS'owner'
p21
S'cruegge'
p22
sS'viewers'
p23
(lp24
sS'ratings'
p25
(lp26
sS'collaborators'
p27
(lp28
S'abehnen'
p29
aS'jschulz'
p30
aS'tgroth'
p31
asS'name'
p32
Vlsg01
p33
sS'auto_publish'
p34
I00
sS'last_change'
p35
(S'jschulz'
p36
F1298360965.741703
tp37
sS'worksheet_that_was_published'
p38
(g12
I0
tp39
s.