(dp1
S'tags'
p2
(dp3
S'jschulz'
p4
(lp5
I1
assS'id_number'
p6
I44
sS'pretty_print'
p7
I00
sS'system'
p8
S'sage'
p9
sS'published_id_number'
p10
NsS'owner'
p11
g4
sS'viewers'
p12
(lp13
sS'ratings'
p14
(lp15
sS'collaborators'
p16
(lp17
sS'name'
p18
S'lsgKlausur1'
p19
sS'auto_publish'
p20
I00
sS'last_change'
p21
(g4
F1267171260.6306651
tp22
sS'worksheet_that_was_published'
p23
(g4
I44
tp24
s.