(dp1
S'tags'
p2
(dp3
S'tgroth'
p4
(lp5
I1
assS'id_number'
p6
I46
sS'pretty_print'
p7
I00
sS'system'
p8
S'sage'
p9
sS'published_id_number'
p10
NsS'owner'
p11
S'tgroth'
p12
sS'viewers'
p13
(lp14
sS'ratings'
p15
(lp16
sS'collaborators'
p17
(lp18
S'abehnen'
p19
aS'cruegge'
p20
aS'jschulz'
p21
asS'name'
p22
VKlausuruebung
p23
sS'auto_publish'
p24
I00
sS'last_change'
p25
(g4
F1299239504.2129841
tp26
sS'worksheet_that_was_published'
p27
(g4
I46
tp28
s.