(dp1
S'tags'
p2
(dp3
S'tgroth'
p4
(lp5
I1
assS'id_number'
p6
I47
sS'pretty_print'
p7
I00
sS'system'
p8
S'sage'
p9
sS'published_id_number'
p10
NsS'owner'
p11
g4
sS'viewers'
p12
(lp13
sS'ratings'
p14
(lp15
sS'collaborators'
p16
(lp17
S'abehnen'
p18
aS'cruegge'
p19
aS'jschulz'
p20
asS'name'
p21
VKlausuruebung Lsg
p22
sS'auto_publish'
p23
I00
sS'last_change'
p24
(g4
F1299515024.9207671
tp25
sS'worksheet_that_was_published'
p26
(g4
I47
tp27
s.