(dp1
S'tags'
p2
(dp3
S'jschulz'
p4
(lp5
I2
asS'tgroth'
p6
(lp7
I1
assS'id_number'
p8
I47
sS'pretty_print'
p9
I00
sS'system'
p10
S'sage'
p11
sS'published_id_number'
p12
NsS'owner'
p13
S'tgroth'
p14
sS'viewers'
p15
(lp16
sS'ratings'
p17
(lp18
sS'collaborators'
p19
(lp20
S'abehnen'
p21
aS'cruegge'
p22
aS'jschulz'
p23
asS'name'
p24
VKlausuruebung Lsg
p25
sS'auto_publish'
p26
I00
sS'last_change'
p27
(g6
F1299515024.9207671
tp28
sS'worksheet_that_was_published'
p29
(g6
I47
tp30
s.