(dp1
S'tags'
p2
(dp3
S'admin'
p4
(lp5
I1
asS'jschulz'
p6
(lp7
I1
assS'id_number'
p8
I23
sS'pretty_print'
p9
I00
sS'system'
p10
S'sage'
p11
sS'published_id_number'
p12
NsS'owner'
p13
S'jschulz'
p14
sS'viewers'
p15
(lp16
sS'ratings'
p17
(lp18
sS'collaborators'
p19
(lp20
S'cruegge'
p21
asS'name'
p22
S'06_Folgen'
p23
sS'auto_publish'
p24
I00
sS'last_change'
p25
(g4
F1265029584.8372869
tp26
sS'worksheet_that_was_published'
p27
(g4
I23
tp28
s.