(dp1
S'tags'
p2
(dp3
S'jschulz'
p4
(lp5
I1
asS'admin'
p6
(lp7
I1
asS'cruegge'
p8
(lp9
I1
asS'tgroth'
p10
(lp11
I1
asS'abehnen'
p12
(lp13
I1
assS'id_number'
p14
I1
sS'pretty_print'
p15
I01
sS'system'
p16
S'sage'
p17
sS'published_id_number'
p18
NsS'owner'
p19
S'cruegge'
p20
sS'viewers'
p21
(lp22
sS'ratings'
p23
(lp24
sS'collaborators'
p25
(lp26
S'abehnen'
p27
aS'jschulz'
p28
aS'tgroth'
p29
asS'name'
p30
Vlsg02
p31
sS'auto_publish'
p32
I00
sS'last_change'
p33
(S'cruegge'
p34
F1298392357.531502
tp35
sS'worksheet_that_was_published'
p36
(g8
I1
tp37
s.