(dp1
S'tags'
p2
(dp3
S'jschulz'
p4
(lp5
I0
asS'pub'
p6
(lp7
(lp8
I1
aassS'id_number'
p9
I0
sS'pretty_print'
p10
I00
sS'system'
p11
S'sage'
p12
sS'published_id_number'
p13
NsS'owner'
p14
S'pub'
p15
sS'viewers'
p16
(lp17
sS'ratings'
p18
(lp19
sS'collaborators'
p20
(lp21
sS'name'
p22
S'test'
p23
sS'auto_publish'
p24
I00
sS'last_change'
p25
(S'jschulz'
p26
F1267101751.4553759
tp27
sS'worksheet_that_was_published'
p28
(S'jschulz'
p29
I7
tp30
s.