(dp1
S'tags'
p2
(dp3
S'jschulz'
p4
(lp5
I0
asS'pub'
p6
(lp7
(lp8
I1
aassS'id_number'
p9
I0
sS'pretty_print'
p10
I00
sS'system'
p11
S'sage'
p12
sS'published_id_number'
p13
NsS'owner'
p14
g6
sS'viewers'
p15
(lp16
sS'ratings'
p17
(lp18
sS'collaborators'
p19
(lp20
sS'name'
p21
S'test'
p22
sS'auto_publish'
p23
I00
sS'last_change'
p24
(g4
F1266519359.923847
tp25
sS'worksheet_that_was_published'
p26
(S'jschulz'
p27
I7
tp28
s.