(dp1
S'tags'
p2
(dp3
S'cruegge'
p4
(lp5
I1
assS'id_number'
p6
I4
sS'pretty_print'
p7
I00
sS'system'
p8
S'sage'
p9
sS'published_id_number'
p10
NsS'owner'
p11
g4
sS'viewers'
p12
(lp13
sS'ratings'
p14
(lp15
sS'collaborators'
p16
(lp17
S'jschulz'
p18
asS'name'
p19
S'lsg05'
p20
sS'auto_publish'
p21
I00
sS'last_change'
p22
(S'admin'
p23
F1265729162.1956921
tp24
sS'worksheet_that_was_published'
p25
(g4
I4
tp26
s.