(dp1
S'tags'
p2
(dp3
S'jschulz'
p4
(lp5
I1
asS'cruegge'
p6
(lp7
I1
assS'id_number'
p8
I5
sS'pretty_print'
p9
I00
sS'system'
p10
S'sage'
p11
sS'published_id_number'
p12
NsS'owner'
p13
S'cruegge'
p14
sS'viewers'
p15
(lp16
sS'ratings'
p17
(lp18
sS'collaborators'
p19
(lp20
S'jschulz'
p21
asS'name'
p22
S'lsg06'
p23
sS'auto_publish'
p24
I00
sS'last_change'
p25
(S'cruegge'
p26
F1266773117.5100019
tp27
sS'worksheet_that_was_published'
p28
(g6
I5
tp29
s.