(dp1
S'tags'
p2
(dp3
S'admin'
p4
(lp5
I2
asS'cruegge'
p6
(lp7
I2
assS'id_number'
p8
I9
sS'pretty_print'
p9
I00
sS'system'
p10
S'sage'
p11
sS'published_id_number'
p12
NsS'owner'
p13
S'cruegge'
p14
sS'viewers'
p15
(lp16
sS'ratings'
p17
(lp18
sS'collaborators'
p19
(lp20
sS'name'
p21
VUntitled
p22
sS'auto_publish'
p23
I00
sS'last_change'
p24
(S'cruegge'
p25
F1266593108.403975
tp26
sS'worksheet_that_was_published'
p27
(g6
I9
tp28
s.