(dp1
S'tags'
p2
(dp3
S'cruegge'
p4
(lp5
I1
assS'id_number'
p6
I10
sS'pretty_print'
p7
I00
sS'system'
p8
S'sage'
p9
sS'published_id_number'
p10
NsS'owner'
p11
S'cruegge'
p12
sS'viewers'
p13
(lp14
sS'ratings'
p15
(lp16
sS'collaborators'
p17
(lp18
sS'name'
p19
S'Untitled'
p20
sS'auto_publish'
p21
I00
sS'last_change'
p22
(g12
F1267095527.8652661
tp23
sS'worksheet_that_was_published'
p24
(g4
I10
tp25
s.