(dp1
S'tags'
p2
(dp3
S'admin'
p4
(lp5
I1
asS'jschulz'
p6
(lp7
I1
asS'cruegge'
p8
(lp9
I1
assS'id_number'
p10
I9
sS'pretty_print'
p11
I00
sS'system'
p12
S'sage'
p13
sS'published_id_number'
p14
NsS'owner'
p15
S'jschulz'
p16
sS'viewers'
p17
(lp18
sS'ratings'
p19
(lp20
sS'collaborators'
p21
(lp22
S'cruegge'
p23
asS'name'
p24
S'02_symbolisches rechnen'
p25
sS'auto_publish'
p26
I00
sS'last_change'
p27
(g4
F1263737052.7989781
tp28
sS'worksheet_that_was_published'
p29
(g4
I9
tp30
s.