(dp1
S'tags'
p2
(dp3
S'admin'
p4
(lp5
I1
asS'jschulz'
p6
(lp7
I1
asS'guest'
p8
(lp9
I1
assS'id_number'
p10
I7
sS'pretty_print'
p11
I00
sS'system'
p12
S'sage'
p13
sS'published_id_number'
p14
NsS'owner'
p15
S'jschulz'
p16
sS'viewers'
p17
(lp18
sS'ratings'
p19
(lp20
sS'collaborators'
p21
(lp22
sS'name'
p23
S'test'
p24
sS'auto_publish'
p25
I01
sS'last_change'
p26
(S'jschulz'
p27
F1266825608.6151421
tp28
sS'worksheet_that_was_published'
p29
(g4
I7
tp30
s.