(dp1
S'tags'
p2
(dp3
S'jschulz'
p4
(lp5
I1
asS'cruegge'
p6
(lp7
I1
assS'id_number'
p8
I8
sS'pretty_print'
p9
I00
sS'system'
p10
S'sage'
p11
sS'published_id_number'
p12
NsS'owner'
p13
S'cruegge'
p14
sS'viewers'
p15
(lp16
sS'ratings'
p17
(lp18
sS'collaborators'
p19
(lp20
S'jschulz'
p21
asS'name'
p22
S'lsg09'
p23
sS'auto_publish'
p24
I00
sS'last_change'
p25
(g6
F1265990930.4009149
tp26
sS'worksheet_that_was_published'
p27
(g6
I8
tp28
s.