(dp1
S'tags'
p2
(dp3
S'jschulz'
p4
(lp5
I1
asS'cruegge'
p6
(lp7
I1
asS'guest'
p8
(lp9
I1
assS'id_number'
p10
I38
sS'pretty_print'
p11
I00
sS'system'
p12
S'sage'
p13
sS'published_id_number'
p14
NsS'owner'
p15
S'jschulz'
p16
sS'viewers'
p17
(lp18
sS'ratings'
p19
(lp20
sS'collaborators'
p21
(lp22
S'cruegge'
p23
asS'name'
p24
S'09_interact'
p25
sS'auto_publish'
p26
I00
sS'last_change'
p27
(S'jschulz'
p28
F1267089921.010118
tp29
sS'worksheet_that_was_published'
p30
(g4
I38
tp31
s.