(dp1
S'tags'
p2
(dp3
S'jschulz'
p4
(lp5
I1
asS'guest'
p6
(lp7
I1
assS'id_number'
p8
I43
sS'pretty_print'
p9
I00
sS'system'
p10
S'sage'
p11
sS'published_id_number'
p12
NsS'owner'
p13
g4
sS'viewers'
p14
(lp15
sS'ratings'
p16
(lp17
sS'collaborators'
p18
(lp19
sS'name'
p20
S'09_geogebra'
p21
sS'auto_publish'
p22
I00
sS'last_change'
p23
(g4
F1267016012.416136
tp24
sS'worksheet_that_was_published'
p25
(g4
I43
tp26
s.