(dp1
S'tags'
p2
(dp3
S'admin'
p4
(lp5
I1
asS'jschulz'
p6
(lp7
I1
asS'cruegge'
p8
(lp9
I1
asS'guest'
p10
(lp11
I1
assS'id_number'
p12
I16
sS'pretty_print'
p13
I00
sS'system'
p14
S'sage'
p15
sS'published_id_number'
p16
NsS'owner'
p17
S'jschulz'
p18
sS'viewers'
p19
(lp20
sS'ratings'
p21
(lp22
sS'collaborators'
p23
(lp24
S'cruegge'
p25
asS'name'
p26
S'05_datencontainer'
p27
sS'auto_publish'
p28
I00
sS'last_change'
p29
(S'jschulz'
p30
F1266588823.9292841
tp31
sS'worksheet_that_was_published'
p32
(g4
I16
tp33
s.