(dp1
S'tags'
p2
(dp3
S'jschulz'
p4
(lp5
I1
assS'id_number'
p6
I45
sS'pretty_print'
p7
I00
sS'system'
p8
S'sage'
p9
sS'published_id_number'
p10
NsS'owner'
p11
g4
sS'viewers'
p12
(lp13
sS'ratings'
p14
(lp15
sS'collaborators'
p16
(lp17
S'cruegge'
p18
asS'name'
p19
VlsgKlausur2
p20
sS'auto_publish'
p21
I00
sS'last_change'
p22
(g4
F1271680579.7209361
tp23
sS'worksheet_that_was_published'
p24
(g4
I45
tp25
s.