(dp1
S'tags'
p2
(dp3
S'admin'
p4
(lp5
I2
asS'jschulz'
p6
(lp7
I2
assS'id_number'
p8
I17
sS'pretty_print'
p9
I01
sS'system'
p10
S'sage'
p11
sS'published_id_number'
p12
NsS'owner'
p13
S'jschulz'
p14
sS'viewers'
p15
(lp16
sS'ratings'
p17
(lp18
sS'collaborators'
p19
(lp20
sS'name'
p21
S'lsg02'
p22
sS'auto_publish'
p23
I00
sS'last_change'
p24
(S'admin'
p25
F1264780860.0529499
tp26
sS'worksheet_that_was_published'
p27
(g4
I17
tp28
s.