(dp1
S'tags'
p2
(dp3
S'jschulz'
p4
(lp5
I1
assS'id_number'
p6
I53
sS'pretty_print'
p7
I00
sS'system'
p8
S'sage'
p9
sS'published_id_number'
p10
NsS'owner'
p11
S'jschulz'
p12
sS'viewers'
p13
(lp14
sS'ratings'
p15
(lp16
sS'collaborators'
p17
(lp18
sS'name'
p19
Vvorkurs
p20
sS'auto_publish'
p21
I00
sS'last_change'
p22
(S'jschulz'
p23
F1298481614.2550709
tp24
sS'worksheet_that_was_published'
p25
(g4
I53
tp26
s.